target datalayout = "e-m:e-p270:32:32-p271:32:32-p272:64:64-i64:64-i128:128-f80:128-n8:16:32:64-S128"
target triple = "x86_64-pc-linux-gnu"

%struct.H5_user_cb_state_t = type { %struct.H5E_user_cb_state_t }
%struct.H5E_user_cb_state_t = type { i32, %union.anon, ptr }
%union.anon = type { ptr }
%struct.H5VL_connector_t = type { ptr, i64, ptr, ptr }
%struct.H5VL_class_t = type { i32, i32, ptr, i32, i64, ptr, ptr, %struct.H5VL_info_class_t, %struct.H5VL_wrap_class_t, %struct.H5VL_attr_class_t, %struct.H5VL_dataset_class_t, %struct.H5VL_datatype_class_t, %struct.H5VL_file_class_t, %struct.H5VL_group_class_t, %struct.H5VL_link_class_t, %struct.H5VL_object_class_t, %struct.H5VL_introspect_class_t, %struct.H5VL_request_class_t, %struct.H5VL_blob_class_t, %struct.H5VL_token_class_t, ptr }
%struct.H5VL_info_class_t = type { i64, ptr, ptr, ptr, ptr, ptr }
%struct.H5VL_wrap_class_t = type { ptr, ptr, ptr, ptr, ptr }
%struct.H5VL_attr_class_t = type { ptr, ptr, ptr, ptr, ptr, ptr, ptr, ptr }
%struct.H5VL_dataset_class_t = type { ptr, ptr, ptr, ptr, ptr, ptr, ptr, ptr }
%struct.H5VL_datatype_class_t = type { ptr, ptr, ptr, ptr, ptr, ptr }
%struct.H5VL_file_class_t = type { ptr, ptr, ptr, ptr, ptr, ptr }
%struct.H5VL_group_class_t = type { ptr, ptr, ptr, ptr, ptr, ptr }
%struct.H5VL_link_class_t = type { ptr, ptr, ptr, ptr, ptr, ptr }
%struct.H5VL_object_class_t = type { ptr, ptr, ptr, ptr, ptr }
%struct.H5VL_introspect_class_t = type { ptr, ptr, ptr }
%struct.H5VL_request_class_t = type { ptr, ptr, ptr, ptr, ptr, ptr }
%struct.H5VL_blob_class_t = type { ptr, ptr, ptr, ptr }
%struct.H5VL_token_class_t = type { ptr, ptr, ptr }

@.str = private unnamed_addr constant [106 x i8] c"generated/home/dtcxzyw/WorkSpace/Projects/compilers/llvm-opt-benchmark/bench/hdf5/hdf5/src/H5VLcallback.c\00", align 1
@H5E_ARGS_g = external global i64, align 8
@H5E_BADTYPE_g = external global i64, align 8
@.str.1 = private unnamed_addr constant [23 x i8] c"not a VOL connector ID\00", align 1
@H5E_LIB_g = external global i64, align 8
@H5E_CANTSET_g = external global i64, align 8
@.str.2 = private unnamed_addr constant [37 x i8] c"preparation for user callback failed\00", align 1
@H5E_CANTRESTORE_g = external global i64, align 8
@H5E_VOL_g = external global i64, align 8
@__func__.H5VLget_wrap_ctx = private unnamed_addr constant [17 x i8] c"H5VLget_wrap_ctx\00", align 1
@H5E_CANTGET_g = external global i64, align 8
@.str.18 = private unnamed_addr constant [39 x i8] c"connector wrap context callback failed\00", align 1

; Function Attrs: nounwind uwtable
define i32 @H5VLget_wrap_ctx(ptr noundef %0, i64 noundef %1, ptr noundef %2) #0 {
  %4 = alloca i32, align 4
  %5 = alloca ptr, align 8
  %6 = alloca i64, align 8
  %7 = alloca ptr, align 8
  %8 = alloca ptr, align 8
  %9 = alloca i32, align 4
  %10 = alloca i8, align 1
  %11 = alloca %struct.H5_user_cb_state_t, align 8
  %12 = alloca i32, align 4
  store ptr %0, ptr %5, align 8, !tbaa !42
  store i64 %1, ptr %6, align 8, !tbaa !3
  store ptr %2, ptr %7, align 8, !tbaa !42
  call void @llvm.lifetime.start.p0(i64 8, ptr %8) #8
  call void @llvm.lifetime.start.p0(i64 4, ptr %9) #8
  store i32 0, ptr %9, align 4, !tbaa !7
  call void @llvm.lifetime.start.p0(i64 1, ptr %10) #8
  store i8 0, ptr %10, align 1, !tbaa !9
  %13 = load i64, ptr %6, align 8, !tbaa !3
  %14 = call ptr @H5I_object_verify(i64 noundef %13, i32 noundef 9)
  store ptr %14, ptr %8, align 8, !tbaa !11
  %15 = icmp eq ptr null, %14
  br i1 %15, label %16, label %35

16:                                               ; preds = %3
  br label %17

17:                                               ; preds = %16
  br label %18

18:                                               ; preds = %17
  br label %19

19:                                               ; preds = %18
  %20 = load i64, ptr @H5E_ARGS_g, align 8, !tbaa !3
  %21 = load i64, ptr @H5E_BADTYPE_g, align 8, !tbaa !3
  %22 = call i32 (ptr, ptr, i32, i64, i64, ptr, ...) @H5E_printf_stack(ptr noundef @.str, ptr noundef @__func__.H5VLget_wrap_ctx, i32 noundef 821, i64 noundef %20, i64 noundef %21, ptr noundef @.str.1)
  br label %23

23:                                               ; preds = %19
  br label %24

24:                                               ; preds = %23
  store i8 1, ptr %10, align 1, !tbaa !9
  %25 = load i8, ptr %10, align 1, !tbaa !9, !range !14, !noundef !15
  %26 = trunc i8 %25 to i1
  %27 = zext i1 %26 to i8
  store i8 %27, ptr %10, align 1, !tbaa !9
  br label %28

28:                                               ; preds = %24
  br label %29

29:                                               ; preds = %28
  br label %30

30:                                               ; preds = %29
  store i32 -1, ptr %9, align 4, !tbaa !7
  br label %125

31:                                               ; No predecessors!
  br label %32

32:                                               ; preds = %31
  br label %33

33:                                               ; preds = %32
  br label %34

34:                                               ; preds = %33
  br label %35

35:                                               ; preds = %34, %3
  %36 = load ptr, ptr %8, align 8, !tbaa !11
  %37 = getelementptr inbounds nuw %struct.H5VL_connector_t, ptr %36, i32 0, i32 0
  %38 = load ptr, ptr %37, align 8, !tbaa !16
  %39 = getelementptr inbounds nuw %struct.H5VL_class_t, ptr %38, i32 0, i32 8
  %40 = getelementptr inbounds nuw %struct.H5VL_wrap_class_t, ptr %39, i32 0, i32 1
  %41 = load ptr, ptr %40, align 8, !tbaa !53
  %42 = icmp ne ptr %41, null
  br i1 %42, label %43, label %122

43:                                               ; preds = %35
  call void @llvm.lifetime.start.p0(i64 24, ptr %11) #8
  %44 = call i32 @H5_user_cb_prepare(ptr noundef %11)
  %45 = icmp slt i32 %44, 0
  br i1 %45, label %46, label %65

46:                                               ; preds = %43
  br label %47

47:                                               ; preds = %46
  br label %48

48:                                               ; preds = %47
  br label %49

49:                                               ; preds = %48
  %50 = load i64, ptr @H5E_LIB_g, align 8, !tbaa !3
  %51 = load i64, ptr @H5E_CANTSET_g, align 8, !tbaa !3
  %52 = call i32 (ptr, ptr, i32, i64, i64, ptr, ...) @H5E_printf_stack(ptr noundef @.str, ptr noundef @__func__.H5VLget_wrap_ctx, i32 noundef 829, i64 noundef %50, i64 noundef %51, ptr noundef @.str.2)
  br label %53

53:                                               ; preds = %49
  br label %54

54:                                               ; preds = %53
  store i8 1, ptr %10, align 1, !tbaa !9
  %55 = load i8, ptr %10, align 1, !tbaa !9, !range !14, !noundef !15
  %56 = trunc i8 %55 to i1
  %57 = zext i1 %56 to i8
  store i8 %57, ptr %10, align 1, !tbaa !9
  br label %58

58:                                               ; preds = %54
  br label %59

59:                                               ; preds = %58
  br label %60

60:                                               ; preds = %59
  store i32 -1, ptr %9, align 4, !tbaa !7
  store i32 10, ptr %12, align 4
  br label %97

61:                                               ; No predecessors!
  br label %62

62:                                               ; preds = %61
  br label %63

63:                                               ; preds = %62
  br label %64

64:                                               ; preds = %63
  br label %65

65:                                               ; preds = %64, %43
  %66 = load ptr, ptr %8, align 8, !tbaa !11
  %67 = getelementptr inbounds nuw %struct.H5VL_connector_t, ptr %66, i32 0, i32 0
  %68 = load ptr, ptr %67, align 8, !tbaa !16
  %69 = getelementptr inbounds nuw %struct.H5VL_class_t, ptr %68, i32 0, i32 8
  %70 = getelementptr inbounds nuw %struct.H5VL_wrap_class_t, ptr %69, i32 0, i32 1
  %71 = load ptr, ptr %70, align 8, !tbaa !53
  %72 = load ptr, ptr %5, align 8, !tbaa !42
  %73 = load ptr, ptr %7, align 8, !tbaa !42
  %74 = call i32 %71(ptr noundef %72, ptr noundef %73)
  store i32 %74, ptr %9, align 4, !tbaa !7
  %75 = call i32 @H5_user_cb_restore(ptr noundef %11)
  %76 = icmp slt i32 %75, 0
  br i1 %76, label %77, label %96

77:                                               ; preds = %65
  br label %78

78:                                               ; preds = %77
  br label %79

79:                                               ; preds = %78
  br label %80

80:                                               ; preds = %79
  %81 = load i64, ptr @H5E_LIB_g, align 8, !tbaa !3
  %82 = load i64, ptr @H5E_CANTRESTORE_g, align 8, !tbaa !3
  %83 = call i32 (ptr, ptr, i32, i64, i64, ptr, ...) @H5E_printf_stack(ptr noundef @.str, ptr noundef @__func__.H5VLget_wrap_ctx, i32 noundef 834, i64 noundef %81, i64 noundef %82, ptr noundef @.str.2)
  br label %84

84:                                               ; preds = %80
  br label %85

85:                                               ; preds = %84
  store i8 1, ptr %10, align 1, !tbaa !9
  %86 = load i8, ptr %10, align 1, !tbaa !9, !range !14, !noundef !15
  %87 = trunc i8 %86 to i1
  %88 = zext i1 %87 to i8
  store i8 %88, ptr %10, align 1, !tbaa !9
  br label %89

89:                                               ; preds = %85
  br label %90

90:                                               ; preds = %89
  br label %91

91:                                               ; preds = %90
  store i32 -1, ptr %9, align 4, !tbaa !7
  store i32 10, ptr %12, align 4
  br label %97

92:                                               ; No predecessors!
  br label %93

93:                                               ; preds = %92
  br label %94

94:                                               ; preds = %93
  br label %95

95:                                               ; preds = %94
  br label %96

96:                                               ; preds = %95, %65
  store i32 0, ptr %12, align 4
  br label %97

97:                                               ; preds = %91, %60, %96
  call void @llvm.lifetime.end.p0(i64 24, ptr %11) #8
  %98 = load i32, ptr %12, align 4
  switch i32 %98, label %138 [
    i32 0, label %99
    i32 10, label %125
  ]

99:                                               ; preds = %97
  %100 = load i32, ptr %9, align 4, !tbaa !7
  %101 = icmp slt i32 %100, 0
  br i1 %101, label %102, label %121

102:                                              ; preds = %99
  br label %103

103:                                              ; preds = %102
  br label %104

104:                                              ; preds = %103
  br label %105

105:                                              ; preds = %104
  %106 = load i64, ptr @H5E_VOL_g, align 8, !tbaa !3
  %107 = load i64, ptr @H5E_CANTGET_g, align 8, !tbaa !3
  %108 = call i32 (ptr, ptr, i32, i64, i64, ptr, ...) @H5E_printf_stack(ptr noundef @.str, ptr noundef @__func__.H5VLget_wrap_ctx, i32 noundef 836, i64 noundef %106, i64 noundef %107, ptr noundef @.str.18)
  br label %109

109:                                              ; preds = %105
  br label %110

110:                                              ; preds = %109
  store i8 1, ptr %10, align 1, !tbaa !9
  %111 = load i8, ptr %10, align 1, !tbaa !9, !range !14, !noundef !15
  %112 = trunc i8 %111 to i1
  %113 = zext i1 %112 to i8
  store i8 %113, ptr %10, align 1, !tbaa !9
  br label %114

114:                                              ; preds = %110
  br label %115

115:                                              ; preds = %114
  br label %116

116:                                              ; preds = %115
  store i32 -1, ptr %9, align 4, !tbaa !7
  br label %125

117:                                              ; No predecessors!
  br label %118

118:                                              ; preds = %117
  br label %119

119:                                              ; preds = %118
  br label %120

120:                                              ; preds = %119
  br label %121

121:                                              ; preds = %120, %99
  br label %124

122:                                              ; preds = %35
  %123 = load ptr, ptr %7, align 8, !tbaa !42
  store ptr null, ptr %123, align 8, !tbaa !42
  br label %124

124:                                              ; preds = %122, %121
  br label %125

125:                                              ; preds = %124, %97, %116, %30
  %126 = load i8, ptr %10, align 1, !tbaa !9, !range !14, !noundef !15
  %127 = trunc i8 %126 to i1
  %128 = xor i1 %127, true
  %129 = xor i1 %128, true
  %130 = zext i1 %129 to i32
  %131 = sext i32 %130 to i64
  %132 = call i64 @llvm.expect.i64(i64 %131, i64 0)
  %133 = icmp ne i64 %132, 0
  br i1 %133, label %134, label %136

134:                                              ; preds = %125
  %135 = call i32 @H5E_dump_api_stack()
  br label %136

136:                                              ; preds = %134, %125
  %137 = load i32, ptr %9, align 4, !tbaa !7
  store i32 %137, ptr %4, align 4
  store i32 1, ptr %12, align 4
  br label %138

138:                                              ; preds = %136, %97
  call void @llvm.lifetime.end.p0(i64 1, ptr %10) #8
  call void @llvm.lifetime.end.p0(i64 4, ptr %9) #8
  call void @llvm.lifetime.end.p0(i64 8, ptr %8) #8
  %139 = load i32, ptr %4, align 4
  ret i32 %139
}