; Function Attrs: nounwind uwtable
define range(i32 -1, -2147483648) i32 @H5VLget_wrap_ctx(ptr noundef %0, i64 noundef %1, ptr noundef %2) local_unnamed_addr #0 {
  %4 = alloca %struct.H5_user_cb_state_t, align 8
  %5 = tail call ptr @H5I_object_verify(i64 noundef %1, i32 noundef 9) #7
  %6 = icmp eq ptr %5, null
  br i1 %6, label %7, label %11

7:                                                ; preds = %3
  %8 = load i64, ptr @H5E_ARGS_g, align 8, !tbaa !3
  %9 = load i64, ptr @H5E_BADTYPE_g, align 8, !tbaa !3
  %10 = tail call i32 (ptr, ptr, i32, i64, i64, ptr, ...) @H5E_printf_stack(ptr noundef nonnull @.str, ptr noundef nonnull @__func__.H5VLget_wrap_ctx, i32 noundef 821, i64 noundef %8, i64 noundef %9, ptr noundef nonnull @.str.1) #7
  br label %35

11:                                               ; preds = %3
  %12 = load ptr, ptr %5, align 8, !tbaa !7
  %13 = getelementptr inbounds nuw i8, ptr %12, i64 104
  %14 = load ptr, ptr %13, align 8, !tbaa !51
  %.not = icmp eq ptr %14, null
  br i1 %.not, label %34, label %15

15:                                               ; preds = %11
  call void @llvm.lifetime.start.p0(i64 24, ptr nonnull %4) #7
  %16 = call i32 @H5_user_cb_prepare(ptr noundef nonnull %4) #7
  %17 = icmp slt i32 %16, 0
  br i1 %17, label %.thread, label %18

18:                                               ; preds = %15
  %19 = load ptr, ptr %5, align 8, !tbaa !7
  %20 = getelementptr inbounds nuw i8, ptr %19, i64 104
  %21 = load ptr, ptr %20, align 8, !tbaa !51
  %22 = call i32 %21(ptr noundef %0, ptr noundef %2) #7
  %23 = call i32 @H5_user_cb_restore(ptr noundef nonnull %4) #7
  %24 = icmp slt i32 %23, 0
  br i1 %24, label %.thread, label %28

.thread:                                          ; preds = %18, %15
  %H5E_CANTSET_g.sink = phi ptr [ @H5E_CANTSET_g, %15 ], [ @H5E_CANTRESTORE_g, %18 ]
  %.sink = phi i32 [ 829, %15 ], [ 834, %18 ]
  %25 = load i64, ptr @H5E_LIB_g, align 8, !tbaa !3
  %26 = load i64, ptr %H5E_CANTSET_g.sink, align 8, !tbaa !3
  %27 = call i32 (ptr, ptr, i32, i64, i64, ptr, ...) @H5E_printf_stack(ptr noundef nonnull @.str, ptr noundef nonnull @__func__.H5VLget_wrap_ctx, i32 noundef %.sink, i64 noundef %25, i64 noundef %26, ptr noundef nonnull @.str.2) #7
  call void @llvm.lifetime.end.p0(i64 24, ptr nonnull %4) #7
  br label %35

28:                                               ; preds = %18
  call void @llvm.lifetime.end.p0(i64 24, ptr nonnull %4) #7
  %29 = icmp slt i32 %22, 0
  br i1 %29, label %30, label %37

30:                                               ; preds = %28
  %31 = load i64, ptr @H5E_VOL_g, align 8, !tbaa !3
  %32 = load i64, ptr @H5E_CANTGET_g, align 8, !tbaa !3
  %33 = call i32 (ptr, ptr, i32, i64, i64, ptr, ...) @H5E_printf_stack(ptr noundef nonnull @.str, ptr noundef nonnull @__func__.H5VLget_wrap_ctx, i32 noundef 836, i64 noundef %31, i64 noundef %32, ptr noundef nonnull @.str.18) #7
  br label %35

34:                                               ; preds = %11
  store ptr null, ptr %2, align 8, !tbaa !40
  br label %37

35:                                               ; preds = %7, %30, %.thread
  %36 = call i32 @H5E_dump_api_stack() #7
  br label %37

37:                                               ; preds = %28, %34, %35
  %.01526 = phi i32 [ -1, %35 ], [ %22, %28 ], [ 0, %34 ]
  ret i32 %.01526
}